; ModuleID = '56/2617.c'
source_filename = "56/2617.c"
target datalayout = "e-m:e-p270:32:32-p271:32:32-p272:64:64-i64:64-f80:128-n8:16:32:64-S128"
target triple = "x86_64-pc-linux-gnu"

@.str = private unnamed_addr constant [3 x i8] c"%d\00", align 1

; Function Attrs: noinline nounwind uwtable
define dso_local void @main() #0 {
  %1 = alloca i32, align 4
  %2 = alloca i32, align 4
  %3 = alloca i32, align 4
  %4 = alloca i32, align 4
  %5 = alloca i32, align 4
  %6 = alloca i32, align 4
  %7 = call i32 (i8*, ...) @__isoc99_scanf(i8* getelementptr inbounds ([3 x i8], [3 x i8]* @.str, i64 0, i64 0), i32* %1)
  %8 = load i32, i32* %1, align 4
  %9 = sdiv i32 %8, 10000
  store i32 %9, i32* %2, align 4
  %10 = load i32, i32* %1, align 4
  %11 = load i32, i32* %2, align 4
  %12 = mul nsw i32 %11, 10000
  %13 = sub nsw i32 %10, %12
  %14 = sdiv i32 %13, 1000
  store i32 %14, i32* %3, align 4
  %15 = load i32, i32* %1, align 4
  %16 = load i32, i32* %2, align 4
  %17 = mul nsw i32 %16, 10000
  %18 = sub nsw i32 %15, %17
  %19 = load i32, i32* %3, align 4
  %20 = mul nsw i32 %19, 1000
  %21 = sub nsw i32 %18, %20
  %22 = sdiv i32 %21, 100
  store i32 %22, i32* %4, align 4
  %23 = load i32, i32* %1, align 4
  %24 = load i32, i32* %2, align 4
  %25 = mul nsw i32 %24, 10000
  %26 = sub nsw i32 %23, %25
  %27 = load i32, i32* %3, align 4
  %28 = mul nsw i32 %27, 1000
  %29 = sub nsw i32 %26, %28
  %30 = load i32, i32* %4, align 4
  %31 = mul nsw i32 %30, 100
  %32 = sub nsw i32 %29, %31
  %33 = sdiv i32 %32, 10
  store i32 %33, i32* %5, align 4
  %34 = load i32, i32* %1, align 4
  %35 = load i32, i32* %2, align 4
  %36 = mul nsw i32 %35, 10000
  %37 = sub nsw i32 %34, %36
  %38 = load i32, i32* %3, align 4
  %39 = mul nsw i32 %38, 1000
  %40 = sub nsw i32 %37, %39
  %41 = load i32, i32* %4, align 4
  %42 = mul nsw i32 %41, 100
  %43 = sub nsw i32 %40, %42
  %44 = load i32, i32* %5, align 4
  %45 = mul nsw i32 %44, 10
  %46 = sub nsw i32 %43, %45
  store i32 %46, i32* %6, align 4
  %47 = load i32, i32* %2, align 4
  %48 = icmp ne i32 %47, 0
  br i1 %48, label %49, label %63

49:                                               ; preds = %0
  %50 = load i32, i32* %6, align 4
  %51 = mul nsw i32 %50, 10000
  %52 = load i32, i32* %5, align 4
  %53 = mul nsw i32 %52, 1000
  %54 = add nsw i32 %51, %53
  %55 = load i32, i32* %4, align 4
  %56 = mul nsw i32 %55, 100
  %57 = add nsw i32 %54, %56
  %58 = load i32, i32* %3, align 4
  %59 = mul nsw i32 %58, 10
  %60 = add nsw i32 %57, %59
  %61 = load i32, i32* %2, align 4
  %62 = add nsw i32 %60, %61
  store i32 %62, i32* %1, align 4
  br label %99

63:                                               ; preds = %0
  %64 = load i32, i32* %3, align 4
  %65 = icmp ne i32 %64, 0
  br i1 %65, label %66, label %77

66:                                               ; preds = %63
  %67 = load i32, i32* %6, align 4
  %68 = mul nsw i32 %67, 1000
  %69 = load i32, i32* %5, align 4
  %70 = mul nsw i32 %69, 100
  %71 = add nsw i32 %68, %70
  %72 = load i32, i32* %4, align 4
  %73 = mul nsw i32 %72, 10
  %74 = add nsw i32 %71, %73
  %75 = load i32, i32* %3, align 4
  %76 = add nsw i32 %74, %75
  store i32 %76, i32* %1, align 4
  br label %98

77:                                               ; preds = %63
  %78 = load i32, i32* %4, align 4
  %79 = icmp ne i32 %78, 0
  br i1 %79, label %80, label %88

80:                                               ; preds = %77
  %81 = load i32, i32* %6, align 4
  %82 = mul nsw i32 %81, 100
  %83 = load i32, i32* %5, align 4
  %84 = mul nsw i32 %83, 10
  %85 = add nsw i32 %82, %84
  %86 = load i32, i32* %4, align 4
  %87 = add nsw i32 %85, %86
  store i32 %87, i32* %1, align 4
  br label %97

88:                                               ; preds = %77
  %89 = load i32, i32* %5, align 4
  %90 = icmp ne i32 %89, 0
  br i1 %90, label %91, label %96

91:                                               ; preds = %88
  %92 = load i32, i32* %6, align 4
  %93 = mul nsw i32 %92, 10
  %94 = load i32, i32* %5, align 4
  %95 = add nsw i32 %93, %94
  store i32 %95, i32* %1, align 4
  br label %96

96:                                               ; preds = %91, %88
  br label %97

97:                                               ; preds = %96, %80
  br label %98

98:                                               ; preds = %97, %66
  br label %99

99:                                               ; preds = %98, %49
  %100 = load i32, i32* %1, align 4
  %101 = call i32 (i8*, ...) @printf(i8* getelementptr inbounds ([3 x i8], [3 x i8]* @.str, i64 0, i64 0), i32 %100)
  ret void
}

declare dso_local i32 @__isoc99_scanf(i8*, ...) #1

declare dso_local i32 @printf(i8*, ...) #1


!llvm.module.flags = !{!0}
!llvm.ident = !{!1}

!0 = !{i32 1, !"wchar_size", i32 4}
!1 = !{!"clang version 10.0.0-4ubuntu1 "}
